target datalayout = "e-m:e-p270:32:32-p271:32:32-p272:64:64-i64:64-i128:128-f80:128-n8:16:32:64-S128"
target triple = "x86_64-pc-linux-gnu"

@.str.22 = private unnamed_addr constant [12 x i8] c"unnamed crs\00", align 1
@.str.23 = private unnamed_addr constant [14 x i8] c"unnamed datum\00", align 1
@.str.24 = private unnamed_addr constant [25 x i8] c"Reference prime meridian\00", align 1
@.str.25 = private unnamed_addr constant [68 x i8] c"Cannot compute transformation from geocentric CRS to geographic CRS\00", align 1

; Function Attrs: mustprogress uwtable
define internal noundef ptr @_ZL43create_operation_geocentric_crs_to_geog_crsP6pj_ctxPK8PJconsts(ptr noundef %0, ptr noundef %1) #0 {
  %3 = alloca ptr, align 8
  %4 = alloca ptr, align 8
  %5 = alloca ptr, align 8
  %6 = alloca ptr, align 8
  %7 = alloca ptr, align 8
  %8 = alloca ptr, align 8
  %9 = alloca double, align 8
  %10 = alloca double, align 8
  %11 = alloca ptr, align 8
  %12 = alloca ptr, align 8
  %13 = alloca ptr, align 8
  %14 = alloca i32, align 4
  %15 = alloca i32, align 4
  %16 = alloca ptr, align 8
  store ptr %0, ptr %4, align 8, !tbaa !12
  store ptr %1, ptr %5, align 8, !tbaa !16
  call void @llvm.lifetime.start.p0(i64 8, ptr %6) #20
  %17 = load ptr, ptr %4, align 8, !tbaa !12
  %18 = load ptr, ptr %5, align 8, !tbaa !16
  %19 = call ptr @proj_crs_get_datum_forced(ptr noundef %17, ptr noundef %18)
  store ptr %19, ptr %6, align 8, !tbaa !16
  call void @llvm.lifetime.start.p0(i64 8, ptr %7) #20
  %20 = load ptr, ptr %4, align 8, !tbaa !12
  %21 = call ptr @proj_create_ellipsoidal_2D_cs(ptr noundef %20, i32 noundef 0, ptr noundef null, double noundef 0.000000e+00)
  store ptr %21, ptr %7, align 8, !tbaa !16
  call void @llvm.lifetime.start.p0(i64 8, ptr %8) #20
  %22 = load ptr, ptr %4, align 8, !tbaa !12
  %23 = load ptr, ptr %6, align 8, !tbaa !16
  %24 = call ptr @proj_get_ellipsoid(ptr noundef %22, ptr noundef %23)
  store ptr %24, ptr %8, align 8, !tbaa !16
  %25 = load ptr, ptr %6, align 8, !tbaa !16
  %26 = call ptr @proj_destroy(ptr noundef %25)
  call void @llvm.lifetime.start.p0(i64 8, ptr %9) #20
  store double 0.000000e+00, ptr %9, align 8, !tbaa !23
  call void @llvm.lifetime.start.p0(i64 8, ptr %10) #20
  store double 0.000000e+00, ptr %10, align 8, !tbaa !23
  %27 = load ptr, ptr %4, align 8, !tbaa !12
  %28 = load ptr, ptr %8, align 8, !tbaa !16
  %29 = call i32 @proj_ellipsoid_get_parameters(ptr noundef %27, ptr noundef %28, ptr noundef %9, ptr noundef null, ptr noundef null, ptr noundef %10)
  call void @llvm.lifetime.start.p0(i64 8, ptr %11) #20
  %30 = load ptr, ptr %4, align 8, !tbaa !12
  %31 = load ptr, ptr %8, align 8, !tbaa !16
  %32 = call ptr @proj_get_name(ptr noundef %31)
  %33 = load double, ptr %9, align 8, !tbaa !23
  %34 = load double, ptr %10, align 8, !tbaa !23
  %35 = load ptr, ptr %7, align 8, !tbaa !16
  %36 = call ptr @proj_create_geographic_crs(ptr noundef %30, ptr noundef @.str.22, ptr noundef @.str.23, ptr noundef %32, double noundef %33, double noundef %34, ptr noundef @.str.24, double noundef 0.000000e+00, ptr noundef null, double noundef 0.000000e+00, ptr noundef %35)
  store ptr %36, ptr %11, align 8, !tbaa !16
  %37 = load ptr, ptr %8, align 8, !tbaa !16
  %38 = call ptr @proj_destroy(ptr noundef %37)
  %39 = load ptr, ptr %7, align 8, !tbaa !16
  %40 = call ptr @proj_destroy(ptr noundef %39)
  call void @llvm.lifetime.start.p0(i64 8, ptr %12) #20
  %41 = load ptr, ptr %4, align 8, !tbaa !12
  %42 = call ptr @proj_create_operation_factory_context(ptr noundef %41, ptr noundef null)
  store ptr %42, ptr %12, align 8, !tbaa !58
  %43 = load ptr, ptr %4, align 8, !tbaa !12
  %44 = load ptr, ptr %12, align 8, !tbaa !58
  call void @proj_operation_factory_context_set_spatial_criterion(ptr noundef %43, ptr noundef %44, i32 noundef 1)
  %45 = load ptr, ptr %4, align 8, !tbaa !12
  %46 = load ptr, ptr %12, align 8, !tbaa !58
  call void @proj_operation_factory_context_set_grid_availability_use(ptr noundef %45, ptr noundef %46, i32 noundef 1)
  call void @llvm.lifetime.start.p0(i64 8, ptr %13) #20
  %47 = load ptr, ptr %4, align 8, !tbaa !12
  %48 = load ptr, ptr %5, align 8, !tbaa !16
  %49 = load ptr, ptr %11, align 8, !tbaa !16
  %50 = load ptr, ptr %12, align 8, !tbaa !58
  %51 = call ptr @proj_create_operations(ptr noundef %47, ptr noundef %48, ptr noundef %49, ptr noundef %50)
  store ptr %51, ptr %13, align 8, !tbaa !66
  %52 = load ptr, ptr %12, align 8, !tbaa !58
  call void @proj_operation_factory_context_destroy(ptr noundef %52)
  %53 = load ptr, ptr %11, align 8, !tbaa !16
  %54 = call ptr @proj_destroy(ptr noundef %53)
  call void @llvm.lifetime.start.p0(i64 4, ptr %14) #20
  %55 = load ptr, ptr %13, align 8, !tbaa !66
  %56 = icmp eq ptr %55, null
  br i1 %56, label %57, label %58

57:                                               ; preds = %2
  br label %61

58:                                               ; preds = %2
  %59 = load ptr, ptr %13, align 8, !tbaa !66
  %60 = call i32 @proj_list_get_count(ptr noundef %59)
  br label %61

61:                                               ; preds = %58, %57
  %62 = phi i32 [ 0, %57 ], [ %60, %58 ]
  store i32 %62, ptr %14, align 4, !tbaa !68
  %63 = load i32, ptr %14, align 4, !tbaa !68
  %64 = icmp ne i32 %63, 1
  br i1 %64, label %65, label %68

65:                                               ; preds = %61
  %66 = load ptr, ptr %4, align 8, !tbaa !12
  call void (ptr, ptr, ...) @_Z22proj_context_log_debugP6pj_ctxPKcz(ptr noundef %66, ptr noundef @.str.25)
  %67 = load ptr, ptr %13, align 8, !tbaa !66
  call void @proj_list_destroy(ptr noundef %67)
  store ptr null, ptr %3, align 8
  store i32 1, ptr %15, align 4
  br label %74

68:                                               ; preds = %61
  call void @llvm.lifetime.start.p0(i64 8, ptr %16) #20
  %69 = load ptr, ptr %4, align 8, !tbaa !12
  %70 = load ptr, ptr %13, align 8, !tbaa !66
  %71 = call ptr @proj_list_get(ptr noundef %69, ptr noundef %70, i32 noundef 0)
  store ptr %71, ptr %16, align 8, !tbaa !16
  %72 = load ptr, ptr %13, align 8, !tbaa !66
  call void @proj_list_destroy(ptr noundef %72)
  %73 = load ptr, ptr %16, align 8, !tbaa !16
  store ptr %73, ptr %3, align 8
  store i32 1, ptr %15, align 4
  call void @llvm.lifetime.end.p0(i64 8, ptr %16) #20
  br label %74

74:                                               ; preds = %68, %65
  call void @llvm.lifetime.end.p0(i64 4, ptr %14) #20
  call void @llvm.lifetime.end.p0(i64 8, ptr %13) #20
  call void @llvm.lifetime.end.p0(i64 8, ptr %12) #20
  call void @llvm.lifetime.end.p0(i64 8, ptr %11) #20
  call void @llvm.lifetime.end.p0(i64 8, ptr %10) #20
  call void @llvm.lifetime.end.p0(i64 8, ptr %9) #20
  call void @llvm.lifetime.end.p0(i64 8, ptr %8) #20
  call void @llvm.lifetime.end.p0(i64 8, ptr %7) #20
  call void @llvm.lifetime.end.p0(i64 8, ptr %6) #20
  %75 = load ptr, ptr %3, align 8
  ret ptr %75
}