; Function Attrs: mustprogress uwtable
define internal fastcc noundef ptr @_ZL43create_operation_geocentric_crs_to_geog_crsP6pj_ctxPK8PJconsts(ptr noundef %0, ptr noundef %1) unnamed_addr #0 {
  %3 = alloca double, align 8
  %4 = alloca double, align 8
  %5 = tail call ptr @proj_crs_get_datum_forced(ptr noundef %0, ptr noundef %1)
  %6 = tail call ptr @proj_create_ellipsoidal_2D_cs(ptr noundef %0, i32 noundef 0, ptr noundef null, double noundef 0.000000e+00)
  %7 = tail call ptr @proj_get_ellipsoid(ptr noundef %0, ptr noundef %5)
  %8 = tail call ptr @proj_destroy(ptr noundef %5)
  call void @llvm.lifetime.start.p0(i64 8, ptr nonnull %3) #20
  store double 0.000000e+00, ptr %3, align 8, !tbaa !92
  call void @llvm.lifetime.start.p0(i64 8, ptr nonnull %4) #20
  store double 0.000000e+00, ptr %4, align 8, !tbaa !92
  %9 = call i32 @proj_ellipsoid_get_parameters(ptr noundef %0, ptr noundef %7, ptr noundef nonnull %3, ptr noundef null, ptr noundef null, ptr noundef nonnull %4)
  %10 = call ptr @proj_get_name(ptr noundef %7)
  %11 = load double, ptr %3, align 8, !tbaa !92
  %12 = load double, ptr %4, align 8, !tbaa !92
  %13 = call ptr @proj_create_geographic_crs(ptr noundef %0, ptr noundef nonnull @.str.22, ptr noundef nonnull @.str.23, ptr noundef %10, double noundef %11, double noundef %12, ptr noundef nonnull @.str.24, double noundef 0.000000e+00, ptr noundef null, double noundef 0.000000e+00, ptr noundef %6)
  %14 = call ptr @proj_destroy(ptr noundef %7)
  %15 = call ptr @proj_destroy(ptr noundef %6)
  %16 = call ptr @proj_create_operation_factory_context(ptr noundef %0, ptr noundef null)
  call void @proj_operation_factory_context_set_spatial_criterion(ptr noundef %0, ptr noundef %16, i32 noundef 1)
  call void @proj_operation_factory_context_set_grid_availability_use(ptr noundef %0, ptr noundef %16, i32 noundef 1)
  %17 = call ptr @proj_create_operations(ptr noundef %0, ptr noundef %1, ptr noundef %13, ptr noundef %16)
  call void @proj_operation_factory_context_destroy(ptr noundef %16)
  %18 = call ptr @proj_destroy(ptr noundef %13)
  %19 = icmp eq ptr %17, null
  br i1 %19, label %.critedge, label %20

20:                                               ; preds = %2
  %21 = call i32 @proj_list_get_count(ptr noundef nonnull %17)
  %22 = icmp eq i32 %21, 1
  br i1 %22, label %23, label %.critedge

.critedge:                                        ; preds = %2, %20
  call void (ptr, ptr, ...) @_Z22proj_context_log_debugP6pj_ctxPKcz(ptr noundef %0, ptr noundef nonnull @.str.25)
  br label %25

23:                                               ; preds = %20
  %24 = call ptr @proj_list_get(ptr noundef %0, ptr noundef nonnull %17, i32 noundef 0)
  br label %25

25:                                               ; preds = %23, %.critedge
  %.0 = phi ptr [ null, %.critedge ], [ %24, %23 ]
  call void @proj_list_destroy(ptr noundef %17)
  call void @llvm.lifetime.end.p0(i64 8, ptr nonnull %4) #20
  call void @llvm.lifetime.end.p0(i64 8, ptr nonnull %3) #20
  ret ptr %.0
}